; Function Attrs: nounwind uwtable
define internal noundef nonnull ptr @test_incref_doesnt_leak(ptr readnone captures(none) %0, ptr readnone captures(none) %1) #0 {
  %3 = tail call ptr @PyLong_FromLong(i64 noundef 0) #5
  %4 = load i32, ptr %3, align 8, !tbaa !8
  %5 = icmp slt i32 %4, 0
  br i1 %5, label %Py_DECREF.exit7, label %_test_incref.exit

_test_incref.exit:                                ; preds = %2
  %6 = add nuw i32 %4, 1
  store i32 %6, ptr %3, align 8, !tbaa !8
  %7 = icmp slt i32 %6, 0
  br i1 %7, label %Py_DECREF.exit7, label %Py_INCREF.exit

Py_INCREF.exit:                                   ; preds = %_test_incref.exit
  %8 = add nuw i32 %4, 2
  store i32 %8, ptr %3, align 8, !tbaa !8
  %.not.i = icmp sgt i32 %8, -1
  br i1 %.not.i, label %9, label %Py_DECREF.exit7

9:                                                ; preds = %Py_INCREF.exit
  store i32 %4, ptr %3, align 8, !tbaa !8
  %10 = icmp eq i32 %4, 0
  br i1 %10, label %Py_DECREF.exit5, label %Py_DECREF.exit5.thread

Py_DECREF.exit5:                                  ; preds = %9
  tail call void @_Py_Dealloc(ptr noundef nonnull %3) #5
  %.pre10 = load i32, ptr %3, align 8, !tbaa !8
  %.not.i6 = icmp sgt i32 %.pre10, -1
  br i1 %.not.i6, label %Py_DECREF.exit5.thread, label %Py_DECREF.exit7

Py_DECREF.exit5.thread:                           ; preds = %9, %Py_DECREF.exit5
  %11 = phi i32 [ %.pre10, %Py_DECREF.exit5 ], [ %4, %9 ]
  %12 = add nsw i32 %11, -1
  store i32 %12, ptr %3, align 8, !tbaa !8
  %13 = icmp eq i32 %12, 0
  br i1 %13, label %14, label %Py_DECREF.exit7

14:                                               ; preds = %Py_DECREF.exit5.thread
  tail call void @_Py_Dealloc(ptr noundef nonnull %3) #5
  br label %Py_DECREF.exit7

Py_DECREF.exit7:                                  ; preds = %Py_INCREF.exit, %2, %_test_incref.exit, %Py_DECREF.exit5, %Py_DECREF.exit5.thread, %14
  ret ptr @_Py_NoneStruct
}